target datalayout = "e-m:e-p270:32:32-p271:32:32-p272:64:64-i64:64-i128:128-f80:128-n8:16:32:64-S128"
target triple = "x86_64-pc-linux-gnu"

%struct.H5D_chk_idx_info_t = type { ptr, ptr, ptr, ptr }
%struct.H5O_storage_chunk_t = type { i32, i64, ptr, %union.anon }
%union.anon = type { %struct.H5O_storage_chunk_btree_t }
%struct.H5O_storage_chunk_btree_t = type { i64, ptr }

@H5D_init_g = external global i8, align 1
@H5_libterm_g = external global i8, align 1
@.str = private unnamed_addr constant [102 x i8] c"generated/home/dtcxzyw/WorkSpace/Projects/compilers/llvm-opt-benchmark/bench/hdf5/hdf5/src/H5Dbtree.c\00", align 1
@H5E_DATASET_g = external global i64, align 8
@__func__.H5D__btree_idx_get_addr = private unnamed_addr constant [24 x i8] c"H5D__btree_idx_get_addr\00", align 1
@H5E_CANTFIND_g = external global i64, align 8
@.str.7 = private unnamed_addr constant [32 x i8] c"can't check for chunk in B-tree\00", align 1

; Function Attrs: nounwind uwtable
define internal i32 @H5D__btree_idx_get_addr(ptr noundef %0, ptr noundef %1) #0 {
  %3 = alloca ptr, align 8
  %4 = alloca ptr, align 8
  %5 = alloca i8, align 1
  %6 = alloca i32, align 4
  %7 = alloca i8, align 1
  store ptr %0, ptr %3, align 8, !tbaa !3
  store ptr %1, ptr %4, align 8, !tbaa !37
  call void @llvm.lifetime.start.p0(i64 1, ptr %5) #8
  call void @llvm.lifetime.start.p0(i64 4, ptr %6) #8
  store i32 0, ptr %6, align 4, !tbaa !12
  call void @llvm.lifetime.start.p0(i64 1, ptr %7) #8
  store i8 0, ptr %7, align 1, !tbaa !14
  %8 = load i8, ptr @H5D_init_g, align 1, !tbaa !14, !range !16, !noundef !17
  %9 = trunc i8 %8 to i1
  br i1 %9, label %14, label %10

10:                                               ; preds = %2
  %11 = load i8, ptr @H5_libterm_g, align 1, !tbaa !14, !range !16, !noundef !17
  %12 = trunc i8 %11 to i1
  %13 = xor i1 %12, true
  br label %14

14:                                               ; preds = %10, %2
  %15 = phi i1 [ true, %2 ], [ %13, %10 ]
  %16 = xor i1 %15, true
  %17 = xor i1 %16, true
  %18 = zext i1 %17 to i32
  %19 = sext i32 %18 to i64
  %20 = call i64 @llvm.expect.i64(i64 %19, i64 1)
  %21 = icmp ne i64 %20, 0
  br i1 %21, label %22, label %55

22:                                               ; preds = %14
  store i8 0, ptr %5, align 1, !tbaa !14
  %23 = load ptr, ptr %3, align 8, !tbaa !3
  %24 = getelementptr inbounds nuw %struct.H5D_chk_idx_info_t, ptr %23, i32 0, i32 0
  %25 = load ptr, ptr %24, align 8, !tbaa !25
  %26 = load ptr, ptr %3, align 8, !tbaa !3
  %27 = getelementptr inbounds nuw %struct.H5D_chk_idx_info_t, ptr %26, i32 0, i32 3
  %28 = load ptr, ptr %27, align 8, !tbaa !18
  %29 = getelementptr inbounds nuw %struct.H5O_storage_chunk_t, ptr %28, i32 0, i32 1
  %30 = load i64, ptr %29, align 8, !tbaa !34
  %31 = load ptr, ptr %4, align 8, !tbaa !37
  %32 = call i32 @H5B_find(ptr noundef %25, ptr noundef @H5B_BTREE, i64 noundef %30, ptr noundef %5, ptr noundef %31)
  %33 = icmp slt i32 %32, 0
  br i1 %33, label %34, label %53

34:                                               ; preds = %22
  br label %35

35:                                               ; preds = %34
  br label %36

36:                                               ; preds = %35
  br label %37

37:                                               ; preds = %36
  %38 = load i64, ptr @H5E_DATASET_g, align 8, !tbaa !10
  %39 = load i64, ptr @H5E_CANTFIND_g, align 8, !tbaa !10
  %40 = call i32 (ptr, ptr, i32, i64, i64, ptr, ...) @H5E_printf_stack(ptr noundef @.str, ptr noundef @__func__.H5D__btree_idx_get_addr, i32 noundef 1028, i64 noundef %38, i64 noundef %39, ptr noundef @.str.7)
  br label %41

41:                                               ; preds = %37
  br label %42

42:                                               ; preds = %41
  store i8 1, ptr %7, align 1, !tbaa !14
  %43 = load i8, ptr %7, align 1, !tbaa !14, !range !16, !noundef !17
  %44 = trunc i8 %43 to i1
  %45 = zext i1 %44 to i8
  store i8 %45, ptr %7, align 1, !tbaa !14
  br label %46

46:                                               ; preds = %42
  br label %47

47:                                               ; preds = %46
  br label %48

48:                                               ; preds = %47
  store i32 -1, ptr %6, align 4, !tbaa !12
  br label %54

49:                                               ; No predecessors!
  br label %50

50:                                               ; preds = %49
  br label %51

51:                                               ; preds = %50
  br label %52

52:                                               ; preds = %51
  br label %53

53:                                               ; preds = %52, %22
  br label %54

54:                                               ; preds = %53, %48
  br label %55

55:                                               ; preds = %54, %14
  %56 = load i32, ptr %6, align 4, !tbaa !12
  call void @llvm.lifetime.end.p0(i64 1, ptr %7) #8
  call void @llvm.lifetime.end.p0(i64 4, ptr %6) #8
  call void @llvm.lifetime.end.p0(i64 1, ptr %5) #8
  ret i32 %56
}