; Function Attrs: nounwind uwtable
define internal range(i32 -1, 1) i32 @H5D__btree_idx_get_addr(ptr noundef readonly captures(none) %0, ptr noundef %1) #0 {
  %3 = alloca i8, align 1
  call void @llvm.lifetime.start.p0(i64 1, ptr nonnull %3) #15
  %4 = load i8, ptr @H5D_init_g, align 1, !tbaa !3, !range !7, !noundef !8
  %5 = trunc nuw i8 %4 to i1
  %6 = load i8, ptr @H5_libterm_g, align 1, !range !7
  %7 = trunc nuw i8 %6 to i1
  %8 = xor i1 %7, true
  %9 = select i1 %5, i1 true, i1 %8
  br i1 %9, label %10, label %22, !prof !9

10:                                               ; preds = %2
  store i8 0, ptr %3, align 1, !tbaa !3
  %11 = load ptr, ptr %0, align 8, !tbaa !18
  %12 = getelementptr inbounds nuw i8, ptr %0, i64 24
  %13 = load ptr, ptr %12, align 8, !tbaa !10
  %14 = getelementptr inbounds nuw i8, ptr %13, i64 8
  %15 = load i64, ptr %14, align 8, !tbaa !26
  %16 = call i32 @H5B_find(ptr noundef %11, ptr noundef nonnull @H5B_BTREE, i64 noundef %15, ptr noundef nonnull %3, ptr noundef %1) #15
  %17 = icmp slt i32 %16, 0
  br i1 %17, label %18, label %22

18:                                               ; preds = %10
  %19 = load i64, ptr @H5E_DATASET_g, align 8, !tbaa !20
  %20 = load i64, ptr @H5E_CANTFIND_g, align 8, !tbaa !20
  %21 = call i32 (ptr, ptr, i32, i64, i64, ptr, ...) @H5E_printf_stack(ptr noundef nonnull @.str, ptr noundef nonnull @__func__.H5D__btree_idx_get_addr, i32 noundef 1028, i64 noundef %19, i64 noundef %20, ptr noundef nonnull @.str.7) #15
  br label %22

22:                                               ; preds = %18, %10, %2
  %.0 = phi i32 [ -1, %18 ], [ 0, %10 ], [ 0, %2 ]
  call void @llvm.lifetime.end.p0(i64 1, ptr nonnull %3) #15
  ret i32 %.0
}